target datalayout = "e-m:e-p270:32:32-p271:32:32-p272:64:64-i64:64-i128:128-f80:128-n8:16:32:64-S128"
target triple = "x86_64-pc-linux-gnu"

%struct.yyguts_t = type { ptr, ptr, ptr, i64, i64, ptr, i8, i32, i32, ptr, i32, i32, i32, i32, i32, ptr, i32, ptr, i32, i32, ptr, i32, i32, ptr }

@yy_meta = internal constant [55 x i8] c"\00\01\02\03\01\01\04\01\01\02\05\06\07\07\07\07\07\07\07\01\01\01\01\08\08\09\0A\0A\0B\09\08\08\08\08\08\08\09\09\09\09\09\09\09\09\09\09\09\09\09\09\0A\09\09\01\01", align 16

; Function Attrs: nounwind uwtable
define internal i32 @yy_try_NUL_trans(i32 noundef %0, ptr noundef %1) #0 {
  %3 = alloca i32, align 4
  %4 = alloca ptr, align 8
  %5 = alloca i32, align 4
  %6 = alloca ptr, align 8
  %7 = alloca ptr, align 8
  %8 = alloca i8, align 1
  store i32 %0, ptr %3, align 4
  store ptr %1, ptr %4, align 8
  %9 = load ptr, ptr %4, align 8
  store ptr %9, ptr %6, align 8
  %10 = load ptr, ptr %6, align 8
  %11 = getelementptr inbounds %struct.yyguts_t, ptr %10, i32 0, i32 9
  %12 = load ptr, ptr %11, align 8
  store ptr %12, ptr %7, align 8
  store i8 1, ptr %8, align 1
  %13 = load i32, ptr %3, align 4
  %14 = sext i32 %13 to i64
  %15 = getelementptr inbounds [219 x i16], ptr @yy_accept, i64 0, i64 %14
  %16 = load i16, ptr %15, align 2
  %17 = icmp ne i16 %16, 0
  br i1 %17, label %18, label %25

18:                                               ; preds = %2
  %19 = load i32, ptr %3, align 4
  %20 = load ptr, ptr %6, align 8
  %21 = getelementptr inbounds %struct.yyguts_t, ptr %20, i32 0, i32 16
  store i32 %19, ptr %21, align 8
  %22 = load ptr, ptr %7, align 8
  %23 = load ptr, ptr %6, align 8
  %24 = getelementptr inbounds %struct.yyguts_t, ptr %23, i32 0, i32 17
  store ptr %22, ptr %24, align 8
  br label %25

25:                                               ; preds = %18, %2
  br label %26

26:                                               ; preds = %54, %25
  %27 = load i32, ptr %3, align 4
  %28 = sext i32 %27 to i64
  %29 = getelementptr inbounds [238 x i16], ptr @yy_base, i64 0, i64 %28
  %30 = load i16, ptr %29, align 2
  %31 = sext i16 %30 to i32
  %32 = load i8, ptr %8, align 1
  %33 = zext i8 %32 to i32
  %34 = add nsw i32 %31, %33
  %35 = sext i32 %34 to i64
  %36 = getelementptr inbounds [412 x i16], ptr @yy_chk, i64 0, i64 %35
  %37 = load i16, ptr %36, align 2
  %38 = sext i16 %37 to i32
  %39 = load i32, ptr %3, align 4
  %40 = icmp ne i32 %38, %39
  br i1 %40, label %41, label %55

41:                                               ; preds = %26
  %42 = load i32, ptr %3, align 4
  %43 = sext i32 %42 to i64
  %44 = getelementptr inbounds [238 x i16], ptr @yy_def, i64 0, i64 %43
  %45 = load i16, ptr %44, align 2
  %46 = sext i16 %45 to i32
  store i32 %46, ptr %3, align 4
  %47 = load i32, ptr %3, align 4
  %48 = icmp sge i32 %47, 219
  br i1 %48, label %49, label %54

49:                                               ; preds = %41
  %50 = load i8, ptr %8, align 1
  %51 = zext i8 %50 to i64
  %52 = getelementptr inbounds [55 x i8], ptr @yy_meta, i64 0, i64 %51
  %53 = load i8, ptr %52, align 1
  store i8 %53, ptr %8, align 1
  br label %54

54:                                               ; preds = %49, %41
  br label %26

55:                                               ; preds = %26
  %56 = load i32, ptr %3, align 4
  %57 = sext i32 %56 to i64
  %58 = getelementptr inbounds [238 x i16], ptr @yy_base, i64 0, i64 %57
  %59 = load i16, ptr %58, align 2
  %60 = sext i16 %59 to i32
  %61 = load i8, ptr %8, align 1
  %62 = zext i8 %61 to i32
  %63 = add nsw i32 %60, %62
  %64 = sext i32 %63 to i64
  %65 = getelementptr inbounds [412 x i16], ptr @yy_nxt, i64 0, i64 %64
  %66 = load i16, ptr %65, align 2
  %67 = sext i16 %66 to i32
  store i32 %67, ptr %3, align 4
  %68 = load i32, ptr %3, align 4
  %69 = icmp eq i32 %68, 218
  %70 = zext i1 %69 to i32
  store i32 %70, ptr %5, align 4
  %71 = load i32, ptr %5, align 4
  %72 = icmp ne i32 %71, 0
  br i1 %72, label %73, label %74

73:                                               ; preds = %55
  br label %76

74:                                               ; preds = %55
  %75 = load i32, ptr %3, align 4
  br label %76

76:                                               ; preds = %74, %73
  %77 = phi i32 [ 0, %73 ], [ %75, %74 ]
  ret i32 %77
}